; Function Attrs: mustprogress nounwind uwtable
define internal fastcc void @_ZN4llvm23SmallVectorTemplateBaseISt4pairINS_9StringRefEZN12_GLOBAL__N_120LowerTypeTestsModule5lowerEvE20ExportedFunctionInfoELb1EE9push_backERKS6_(ptr noundef nonnull align 8 dereferenceable(16) %0, ptr noundef nonnull align 8 dereferenceable(32) %1) unnamed_addr #0 align 2 {
  %3 = tail call noundef i64 @_ZNK4llvm15SmallVectorBaseIjE4sizeEv(ptr noundef nonnull align 8 dereferenceable(16) %0) #23
  %4 = add i64 %3, 1
  %5 = tail call noundef i64 @_ZNK4llvm15SmallVectorBaseIjE8capacityEv(ptr noundef nonnull align 8 dereferenceable(16) %0) #23
  %.not.i.i = icmp ugt i64 %4, %5
  %.val.i.pre3 = load ptr, ptr %0, align 8
  br i1 %.not.i.i, label %6, label %_ZN4llvm23SmallVectorTemplateBaseISt4pairINS_9StringRefEZN12_GLOBAL__N_120LowerTypeTestsModule5lowerEvE20ExportedFunctionInfoELb1EE28reserveForParamAndGetAddressERKS6_m.exit

6:                                                ; preds = %2
  %7 = tail call noundef i64 @_ZNK4llvm15SmallVectorBaseIjE4sizeEv(ptr noundef nonnull align 8 dereferenceable(16) %0) #23
  %8 = getelementptr inbounds %"struct.std::pair.617", ptr %.val.i.pre3, i64 %7
  %9 = icmp uge ptr %1, %.val.i.pre3
  %10 = icmp ult ptr %1, %8
  %spec.select.i.i.i.i = and i1 %9, %10
  br i1 %spec.select.i.i.i.i, label %13, label %11

11:                                               ; preds = %6
  %12 = getelementptr inbounds nuw i8, ptr %0, i64 16
  tail call void @_ZN4llvm15SmallVectorBaseIjE8grow_podEPvmm(ptr noundef nonnull align 8 dereferenceable(16) %0, ptr noundef nonnull %12, i64 noundef %4, i64 noundef 32) #23
  %.val.i.pre = load ptr, ptr %0, align 8
  br label %_ZN4llvm23SmallVectorTemplateBaseISt4pairINS_9StringRefEZN12_GLOBAL__N_120LowerTypeTestsModule5lowerEvE20ExportedFunctionInfoELb1EE28reserveForParamAndGetAddressERKS6_m.exit

13:                                               ; preds = %6
  %.val.i.i = load ptr, ptr %0, align 8
  %14 = ptrtoint ptr %1 to i64
  %15 = ptrtoint ptr %.val.i.i to i64
  %16 = sub i64 %14, %15
  %17 = getelementptr inbounds nuw i8, ptr %0, i64 16
  tail call void @_ZN4llvm15SmallVectorBaseIjE8grow_podEPvmm(ptr noundef nonnull align 8 dereferenceable(16) %0, ptr noundef nonnull %17, i64 noundef %4, i64 noundef 32) #23
  %.val18.i.i = load ptr, ptr %0, align 8
  %18 = getelementptr inbounds i8, ptr %.val18.i.i, i64 %16
  br label %_ZN4llvm23SmallVectorTemplateBaseISt4pairINS_9StringRefEZN12_GLOBAL__N_120LowerTypeTestsModule5lowerEvE20ExportedFunctionInfoELb1EE28reserveForParamAndGetAddressERKS6_m.exit

_ZN4llvm23SmallVectorTemplateBaseISt4pairINS_9StringRefEZN12_GLOBAL__N_120LowerTypeTestsModule5lowerEvE20ExportedFunctionInfoELb1EE28reserveForParamAndGetAddressERKS6_m.exit: ; preds = %2, %11, %13
  %.val.i = phi ptr [ %.val.i.pre3, %2 ], [ %.val18.i.i, %13 ], [ %.val.i.pre, %11 ]
  %.016.i.i = phi ptr [ %1, %2 ], [ %18, %13 ], [ %1, %11 ]
  %19 = tail call noundef i64 @_ZNK4llvm15SmallVectorBaseIjE4sizeEv(ptr noundef nonnull align 8 dereferenceable(16) %0) #23
  %20 = getelementptr inbounds %"struct.std::pair.617", ptr %.val.i, i64 %19
  tail call void @llvm.memcpy.p0.p0.i64(ptr noundef nonnull align 1 dereferenceable(32) %20, ptr noundef nonnull align 8 dereferenceable(32) %.016.i.i, i64 32, i1 false)
  %21 = tail call noundef i64 @_ZNK4llvm15SmallVectorBaseIjE4sizeEv(ptr noundef nonnull align 8 dereferenceable(16) %0) #23
  %22 = add i64 %21, 1
  tail call void @_ZN4llvm15SmallVectorBaseIjE8set_sizeEm(ptr noundef nonnull align 8 dereferenceable(16) %0, i64 noundef %22) #23
  ret void
}